; Function Attrs: mustprogress nofree norecurse nosync nounwind willreturn memory(argmem: read) uwtable
define dso_local range(i32 0, 69) i32 @LLVMGetInstructionOpcode(ptr noundef readonly captures(none) %0) local_unnamed_addr #11 {
  %2 = load i8, ptr %0, align 8
  %3 = icmp ult i8 %2, 29
  br i1 %3, label %8, label %4

4:                                                ; preds = %1
  %5 = zext i8 %2 to i32
  %6 = add nsw i32 %5, -29
  %7 = tail call fastcc noundef i32 @_ZL17map_to_llvmopcodei(i32 noundef %6)
  br label %8

8:                                                ; preds = %1, %4
  %.0 = phi i32 [ %7, %4 ], [ 0, %1 ]
  ret i32 %.0
}